; Function Attrs: mustprogress ssp uwtable
define void @_ZNK6open3d4core3nns21NearestNeighborSearch12HybridSearchERKNS0_6TensorEdi(ptr dead_on_unwind noalias writable sret(%"class.std::tuple.38") align 8 %0, ptr noundef nonnull align 8 dereferenceable(216) %1, ptr noundef nonnull align 8 dereferenceable(160) %2, double noundef %3, i32 noundef %4) local_unnamed_addr #4 align 2 {
  %6 = alloca %"class.open3d::core::Device", align 8
  call void @llvm.lifetime.start.p0(i64 8, ptr nonnull %6) #14
  %7 = getelementptr inbounds nuw i8, ptr %1, i64 24
  %8 = tail call i64 @_ZNK6open3d4core6Tensor9GetDeviceEv(ptr noundef nonnull align 8 dereferenceable(160) %7)
  store i64 %8, ptr %6, align 8
  call void @_ZN6open3d4core12tensor_check19AssertTensorDevice_EPKciS3_RKNS0_6TensorERKNS0_6DeviceE(ptr noundef nonnull @.str, i32 noundef 134, ptr noundef nonnull @__PRETTY_FUNCTION__._ZNK6open3d4core3nns21NearestNeighborSearch12HybridSearchERKNS0_6TensorEdi, ptr noundef nonnull align 8 dereferenceable(160) %2, ptr noundef nonnull align 4 dereferenceable(8) %6)
  call void @llvm.lifetime.end.p0(i64 8, ptr nonnull %6) #14
  %9 = load ptr, ptr %7, align 8, !tbaa !4
  %10 = getelementptr inbounds nuw i8, ptr %9, i64 16
  %11 = load ptr, ptr %10, align 8
  %12 = call i64 %11(ptr noundef nonnull align 8 dereferenceable(8) %7)
  %13 = and i64 %12, 4294967295
  %14 = icmp eq i64 %13, 1
  br i1 %14, label %15, label %19

15:                                               ; preds = %5
  %16 = getelementptr inbounds nuw i8, ptr %1, i64 8
  %17 = load ptr, ptr %16, align 8, !tbaa !23
  %.not7 = icmp eq ptr %17, null
  br i1 %.not7, label %18, label %22

18:                                               ; preds = %15
  call void @_ZN6open3d7utility6Logger9LogError_IJEEEvPKciS4_S4_DpOT_(ptr noundef nonnull @.str, i32 noundef 141, ptr noundef nonnull @__PRETTY_FUNCTION__._ZNK6open3d4core3nns21NearestNeighborSearch12HybridSearchERKNS0_6TensorEdi, ptr noundef nonnull @.str.6) #17
  unreachable

19:                                               ; preds = %5
  %20 = load ptr, ptr %1, align 8, !tbaa !25
  %.not = icmp eq ptr %20, null
  br i1 %.not, label %21, label %22

21:                                               ; preds = %19
  call void @_ZN6open3d7utility6Logger9LogError_IJEEEvPKciS4_S4_DpOT_(ptr noundef nonnull @.str, i32 noundef 148, ptr noundef nonnull @__PRETTY_FUNCTION__._ZNK6open3d4core3nns21NearestNeighborSearch12HybridSearchERKNS0_6TensorEdi, ptr noundef nonnull @.str.6) #17
  unreachable

22:                                               ; preds = %19, %15
  %.sink11 = phi ptr [ %17, %15 ], [ %20, %19 ]
  %23 = load ptr, ptr %.sink11, align 8, !tbaa !4
  %24 = getelementptr inbounds nuw i8, ptr %23, i64 56
  %25 = load ptr, ptr %24, align 8
  call void %25(ptr dead_on_unwind writable sret(%"class.std::tuple.38") align 8 %0, ptr noundef nonnull align 8 dereferenceable(208) %.sink11, ptr noundef nonnull align 8 dereferenceable(160) %2, double noundef %3, i32 noundef %4)
  ret void
}